target datalayout = "e-m:e-p270:32:32-p271:32:32-p272:64:64-i64:64-i128:128-f80:128-n8:16:32:64-S128"
target triple = "x86_64-pc-linux-gnu"

%"struct.cv::SparseMat::Hdr" = type { i32, i32, i32, i64, i64, i64, %"class.std::vector", %"class.std::vector.0", [32 x i32] }
%"class.std::vector" = type { %"struct.std::_Vector_base" }
%"struct.std::_Vector_base" = type { %"struct.std::_Vector_base<unsigned char, std::allocator<unsigned char>>::_Vector_impl" }
%"struct.std::_Vector_base<unsigned char, std::allocator<unsigned char>>::_Vector_impl" = type { %"struct.std::_Vector_base<unsigned char, std::allocator<unsigned char>>::_Vector_impl_data" }
%"struct.std::_Vector_base<unsigned char, std::allocator<unsigned char>>::_Vector_impl_data" = type { ptr, ptr, ptr }
%"class.std::vector.0" = type { %"struct.std::_Vector_base.1" }
%"struct.std::_Vector_base.1" = type { %"struct.std::_Vector_base<unsigned long, std::allocator<unsigned long>>::_Vector_impl" }
%"struct.std::_Vector_base<unsigned long, std::allocator<unsigned long>>::_Vector_impl" = type { %"struct.std::_Vector_base<unsigned long, std::allocator<unsigned long>>::_Vector_impl_data" }
%"struct.std::_Vector_base<unsigned long, std::allocator<unsigned long>>::_Vector_impl_data" = type { ptr, ptr, ptr }
%"class.cv::SparseMat" = type { i32, ptr }
%struct.CvSparseMatIterator = type { ptr, ptr, i32 }
%struct.CvSparseMat = type { i32, i32, ptr, i32, ptr, ptr, i32, i32, i32, [32 x i32] }
%struct.CvSparseNode = type { i32, ptr }

; Function Attrs: inlinehint mustprogress nounwind uwtable
define internal noundef ptr @_ZL19cvGetNextSparseNodeP19CvSparseMatIterator(ptr noundef %0) #2 {
  %2 = alloca ptr, align 8
  %3 = alloca ptr, align 8
  %4 = alloca i32, align 4
  %5 = alloca ptr, align 8
  %6 = alloca i32, align 4
  store ptr %0, ptr %3, align 8, !tbaa !157
  %7 = load ptr, ptr %3, align 8, !tbaa !157
  %8 = getelementptr inbounds nuw %struct.CvSparseMatIterator, ptr %7, i32 0, i32 1
  %9 = load ptr, ptr %8, align 8, !tbaa !159
  %10 = getelementptr inbounds nuw %struct.CvSparseNode, ptr %9, i32 0, i32 1
  %11 = load ptr, ptr %10, align 8, !tbaa !161
  %12 = icmp ne ptr %11, null
  br i1 %12, label %13, label %21

13:                                               ; preds = %1
  %14 = load ptr, ptr %3, align 8, !tbaa !157
  %15 = getelementptr inbounds nuw %struct.CvSparseMatIterator, ptr %14, i32 0, i32 1
  %16 = load ptr, ptr %15, align 8, !tbaa !159
  %17 = getelementptr inbounds nuw %struct.CvSparseNode, ptr %16, i32 0, i32 1
  %18 = load ptr, ptr %17, align 8, !tbaa !161
  %19 = load ptr, ptr %3, align 8, !tbaa !157
  %20 = getelementptr inbounds nuw %struct.CvSparseMatIterator, ptr %19, i32 0, i32 1
  store ptr %18, ptr %20, align 8, !tbaa !159
  store ptr %18, ptr %2, align 8
  br label %62

21:                                               ; preds = %1
  call void @llvm.lifetime.start.p0(i64 4, ptr %4) #18
  %22 = load ptr, ptr %3, align 8, !tbaa !157
  %23 = getelementptr inbounds nuw %struct.CvSparseMatIterator, ptr %22, i32 0, i32 2
  %24 = load i32, ptr %23, align 8, !tbaa !163
  %25 = add nsw i32 %24, 1
  store i32 %25, ptr %23, align 8, !tbaa !163
  store i32 %25, ptr %4, align 4, !tbaa !8
  br label %26

26:                                               ; preds = %57, %21
  %27 = load i32, ptr %4, align 4, !tbaa !8
  %28 = load ptr, ptr %3, align 8, !tbaa !157
  %29 = getelementptr inbounds nuw %struct.CvSparseMatIterator, ptr %28, i32 0, i32 0
  %30 = load ptr, ptr %29, align 8, !tbaa !164
  %31 = getelementptr inbounds nuw %struct.CvSparseMat, ptr %30, i32 0, i32 6
  %32 = load i32, ptr %31, align 8, !tbaa !165
  %33 = icmp slt i32 %27, %32
  br i1 %33, label %34, label %60

34:                                               ; preds = %26
  call void @llvm.lifetime.start.p0(i64 8, ptr %5) #18
  %35 = load ptr, ptr %3, align 8, !tbaa !157
  %36 = getelementptr inbounds nuw %struct.CvSparseMatIterator, ptr %35, i32 0, i32 0
  %37 = load ptr, ptr %36, align 8, !tbaa !164
  %38 = getelementptr inbounds nuw %struct.CvSparseMat, ptr %37, i32 0, i32 5
  %39 = load ptr, ptr %38, align 8, !tbaa !166
  %40 = load i32, ptr %4, align 4, !tbaa !8
  %41 = sext i32 %40 to i64
  %42 = getelementptr inbounds ptr, ptr %39, i64 %41
  %43 = load ptr, ptr %42, align 8, !tbaa !54
  store ptr %43, ptr %5, align 8, !tbaa !152
  %44 = load ptr, ptr %5, align 8, !tbaa !152
  %45 = icmp ne ptr %44, null
  br i1 %45, label %46, label %53

46:                                               ; preds = %34
  %47 = load i32, ptr %4, align 4, !tbaa !8
  %48 = load ptr, ptr %3, align 8, !tbaa !157
  %49 = getelementptr inbounds nuw %struct.CvSparseMatIterator, ptr %48, i32 0, i32 2
  store i32 %47, ptr %49, align 8, !tbaa !163
  %50 = load ptr, ptr %5, align 8, !tbaa !152
  %51 = load ptr, ptr %3, align 8, !tbaa !157
  %52 = getelementptr inbounds nuw %struct.CvSparseMatIterator, ptr %51, i32 0, i32 1
  store ptr %50, ptr %52, align 8, !tbaa !159
  store ptr %50, ptr %2, align 8
  store i32 1, ptr %6, align 4
  br label %54

53:                                               ; preds = %34
  store i32 0, ptr %6, align 4
  br label %54

54:                                               ; preds = %53, %46
  call void @llvm.lifetime.end.p0(i64 8, ptr %5) #18
  %55 = load i32, ptr %6, align 4
  switch i32 %55, label %61 [
    i32 0, label %56
  ]

56:                                               ; preds = %54
  br label %57

57:                                               ; preds = %56
  %58 = load i32, ptr %4, align 4, !tbaa !8
  %59 = add nsw i32 %58, 1
  store i32 %59, ptr %4, align 4, !tbaa !8
  br label %26, !llvm.loop !167

60:                                               ; preds = %26
  store ptr null, ptr %2, align 8
  store i32 1, ptr %6, align 4
  br label %61

61:                                               ; preds = %60, %54
  call void @llvm.lifetime.end.p0(i64 4, ptr %4) #18
  br label %62

62:                                               ; preds = %61, %13
  %63 = load ptr, ptr %2, align 8
  ret ptr %63
}

; Function Attrs: inlinehint mustprogress nounwind uwtable
define internal void @_ZN2cvL8copyElemEPKhPhm(ptr noundef %0, ptr noundef %1, i64 noundef %2) #2 {
  %4 = alloca ptr, align 8
  %5 = alloca ptr, align 8
  %6 = alloca i64, align 8
  %7 = alloca i64, align 8
  store ptr %0, ptr %4, align 8, !tbaa !61
  store ptr %1, ptr %5, align 8, !tbaa !61
  store i64 %2, ptr %6, align 8, !tbaa !35
  call void @llvm.lifetime.start.p0(i64 8, ptr %7) #18
  store i64 0, ptr %7, align 8, !tbaa !35
  br label %8

8:                                                ; preds = %21, %3
  %9 = load i64, ptr %7, align 8, !tbaa !35
  %10 = add i64 %9, 4
  %11 = load i64, ptr %6, align 8, !tbaa !35
  %12 = icmp ule i64 %10, %11
  br i1 %12, label %13, label %24

13:                                               ; preds = %8
  %14 = load ptr, ptr %4, align 8, !tbaa !61
  %15 = load i64, ptr %7, align 8, !tbaa !35
  %16 = getelementptr inbounds nuw i8, ptr %14, i64 %15
  %17 = load i32, ptr %16, align 4, !tbaa !8
  %18 = load ptr, ptr %5, align 8, !tbaa !61
  %19 = load i64, ptr %7, align 8, !tbaa !35
  %20 = getelementptr inbounds nuw i8, ptr %18, i64 %19
  store i32 %17, ptr %20, align 4, !tbaa !8
  br label %21

21:                                               ; preds = %13
  %22 = load i64, ptr %7, align 8, !tbaa !35
  %23 = add i64 %22, 4
  store i64 %23, ptr %7, align 8, !tbaa !35
  br label %8, !llvm.loop !88

24:                                               ; preds = %8
  br label %25

25:                                               ; preds = %37, %24
  %26 = load i64, ptr %7, align 8, !tbaa !35
  %27 = load i64, ptr %6, align 8, !tbaa !35
  %28 = icmp ult i64 %26, %27
  br i1 %28, label %29, label %40

29:                                               ; preds = %25
  %30 = load ptr, ptr %4, align 8, !tbaa !61
  %31 = load i64, ptr %7, align 8, !tbaa !35
  %32 = getelementptr inbounds nuw i8, ptr %30, i64 %31
  %33 = load i8, ptr %32, align 1, !tbaa !81
  %34 = load ptr, ptr %5, align 8, !tbaa !61
  %35 = load i64, ptr %7, align 8, !tbaa !35
  %36 = getelementptr inbounds nuw i8, ptr %34, i64 %35
  store i8 %33, ptr %36, align 1, !tbaa !81
  br label %37

37:                                               ; preds = %29
  %38 = load i64, ptr %7, align 8, !tbaa !35
  %39 = add i64 %38, 1
  store i64 %39, ptr %7, align 8, !tbaa !35
  br label %25, !llvm.loop !89

40:                                               ; preds = %25
  call void @llvm.lifetime.end.p0(i64 8, ptr %7) #18
  ret void
}

; Function Attrs: mustprogress nounwind uwtable
define noundef i64 @_ZNK2cv9SparseMat4hashEPKi(ptr noundef nonnull align 8 dereferenceable(16) %0, ptr noundef %1) #1 align 2 {
  %3 = alloca i64, align 8
  %4 = alloca ptr, align 8
  %5 = alloca ptr, align 8
  %6 = alloca i64, align 8
  %7 = alloca i32, align 4
  %8 = alloca i32, align 4
  %9 = alloca i32, align 4
  store ptr %0, ptr %4, align 8, !tbaa !42
  store ptr %1, ptr %5, align 8, !tbaa !10
  %10 = load ptr, ptr %4, align 8
  call void @llvm.lifetime.start.p0(i64 8, ptr %6) #18
  %11 = load ptr, ptr %5, align 8, !tbaa !10
  %12 = getelementptr inbounds i32, ptr %11, i64 0
  %13 = load i32, ptr %12, align 4, !tbaa !8
  %14 = zext i32 %13 to i64
  store i64 %14, ptr %6, align 8, !tbaa !35
  %15 = getelementptr inbounds nuw %"class.cv::SparseMat", ptr %10, i32 0, i32 1
  %16 = load ptr, ptr %15, align 8, !tbaa !46
  %17 = icmp ne ptr %16, null
  br i1 %17, label %19, label %18

18:                                               ; preds = %2
  store i64 0, ptr %3, align 8
  store i32 1, ptr %7, align 4
  br label %44

19:                                               ; preds = %2
  call void @llvm.lifetime.start.p0(i64 4, ptr %8) #18
  %20 = getelementptr inbounds nuw %"class.cv::SparseMat", ptr %10, i32 0, i32 1
  %21 = load ptr, ptr %20, align 8, !tbaa !46
  %22 = getelementptr inbounds nuw %"struct.cv::SparseMat::Hdr", ptr %21, i32 0, i32 1
  %23 = load i32, ptr %22, align 4, !tbaa !25
  store i32 %23, ptr %8, align 4, !tbaa !8
  call void @llvm.lifetime.start.p0(i64 4, ptr %9) #18
  store i32 1, ptr %9, align 4, !tbaa !8
  br label %24

24:                                               ; preds = %39, %19
  %25 = load i32, ptr %9, align 4, !tbaa !8
  %26 = load i32, ptr %8, align 4, !tbaa !8
  %27 = icmp slt i32 %25, %26
  br i1 %27, label %29, label %28

28:                                               ; preds = %24
  store i32 2, ptr %7, align 4
  call void @llvm.lifetime.end.p0(i64 4, ptr %9) #18
  br label %42

29:                                               ; preds = %24
  %30 = load i64, ptr %6, align 8, !tbaa !35
  %31 = mul i64 %30, 1540483477
  %32 = load ptr, ptr %5, align 8, !tbaa !10
  %33 = load i32, ptr %9, align 4, !tbaa !8
  %34 = sext i32 %33 to i64
  %35 = getelementptr inbounds i32, ptr %32, i64 %34
  %36 = load i32, ptr %35, align 4, !tbaa !8
  %37 = zext i32 %36 to i64
  %38 = add i64 %31, %37
  store i64 %38, ptr %6, align 8, !tbaa !35
  br label %39

39:                                               ; preds = %29
  %40 = load i32, ptr %9, align 4, !tbaa !8
  %41 = add nsw i32 %40, 1
  store i32 %41, ptr %9, align 4, !tbaa !8
  br label %24, !llvm.loop !64

42:                                               ; preds = %28
  %43 = load i64, ptr %6, align 8, !tbaa !35
  store i64 %43, ptr %3, align 8
  store i32 1, ptr %7, align 4
  call void @llvm.lifetime.end.p0(i64 4, ptr %8) #18
  br label %44

44:                                               ; preds = %42, %18
  call void @llvm.lifetime.end.p0(i64 8, ptr %6) #18
  %45 = load i64, ptr %3, align 8
  ret i64 %45
}

; Function Attrs: inlinehint mustprogress nounwind uwtable
define linkonce_odr hidden noundef i64 @_ZNK2cv9SparseMat8elemSizeEv(ptr noundef nonnull align 8 dereferenceable(16) %0) #2 comdat align 2 {
  %2 = alloca ptr, align 8
  store ptr %0, ptr %2, align 8, !tbaa !42
  %3 = load ptr, ptr %2, align 8
  %4 = getelementptr inbounds nuw %"class.cv::SparseMat", ptr %3, i32 0, i32 0
  %5 = load i32, ptr %4, align 8, !tbaa !44
  %6 = and i32 %5, 4088
  %7 = ashr i32 %6, 3
  %8 = add nsw i32 %7, 1
  %9 = getelementptr inbounds nuw %"class.cv::SparseMat", ptr %3, i32 0, i32 0
  %10 = load i32, ptr %9, align 8, !tbaa !44
  %11 = and i32 %10, 7
  %12 = mul nsw i32 %11, 4
  %13 = ashr i32 675553809, %12
  %14 = and i32 %13, 15
  %15 = mul nsw i32 %8, %14
  %16 = sext i32 %15 to i64
  ret i64 %16
}

; Function Attrs: mustprogress uwtable
define void @_ZNK11CvSparseMat15copyToSparseMatERN2cv9SparseMatE(ptr noundef nonnull align 8 dereferenceable(184) %0, ptr noundef nonnull align 8 dereferenceable(16) %1) #0 align 2 {
  %3 = alloca ptr, align 8
  %4 = alloca ptr, align 8
  %5 = alloca %struct.CvSparseMatIterator, align 8
  %6 = alloca ptr, align 8
  %7 = alloca i64, align 8
  %8 = alloca ptr, align 8
  %9 = alloca ptr, align 8
  store ptr %0, ptr %3, align 8, !tbaa !144
  store ptr %1, ptr %4, align 8, !tbaa !42
  %10 = load ptr, ptr %3, align 8
  %11 = load ptr, ptr %4, align 8, !tbaa !42
  %12 = getelementptr inbounds nuw %struct.CvSparseMat, ptr %10, i32 0, i32 1
  %13 = load i32, ptr %12, align 4, !tbaa !147
  %14 = getelementptr inbounds nuw %struct.CvSparseMat, ptr %10, i32 0, i32 9
  %15 = getelementptr inbounds [32 x i32], ptr %14, i64 0, i64 0
  %16 = getelementptr inbounds nuw %struct.CvSparseMat, ptr %10, i32 0, i32 0
  %17 = load i32, ptr %16, align 8, !tbaa !151
  call void @_ZN2cv9SparseMat6createEiPKii(ptr noundef nonnull align 8 dereferenceable(16) %11, i32 noundef %13, ptr noundef %15, i32 noundef %17)
  call void @llvm.lifetime.start.p0(i64 24, ptr %5) #18
  call void @llvm.lifetime.start.p0(i64 8, ptr %6) #18
  %18 = call ptr @cvInitSparseMatIterator(ptr noundef %10, ptr noundef %5)
  store ptr %18, ptr %6, align 8, !tbaa !152
  call void @llvm.lifetime.start.p0(i64 8, ptr %7) #18
  %19 = load ptr, ptr %4, align 8, !tbaa !42
  %20 = call noundef i64 @_ZNK2cv9SparseMat8elemSizeEv(ptr noundef nonnull align 8 dereferenceable(16) %19)
  store i64 %20, ptr %7, align 8, !tbaa !35
  br label %21

21:                                               ; preds = %43, %2
  %22 = load ptr, ptr %6, align 8, !tbaa !152
  %23 = icmp ne ptr %22, null
  br i1 %23, label %24, label %45

24:                                               ; preds = %21
  call void @llvm.lifetime.start.p0(i64 8, ptr %8) #18
  %25 = load ptr, ptr %6, align 8, !tbaa !152
  %26 = getelementptr inbounds nuw %struct.CvSparseMat, ptr %10, i32 0, i32 8
  %27 = load i32, ptr %26, align 8, !tbaa !154
  %28 = sext i32 %27 to i64
  %29 = getelementptr inbounds i8, ptr %25, i64 %28
  store ptr %29, ptr %8, align 8, !tbaa !10
  call void @llvm.lifetime.start.p0(i64 8, ptr %9) #18
  %30 = load ptr, ptr %4, align 8, !tbaa !42
  %31 = load ptr, ptr %8, align 8, !tbaa !10
  %32 = load ptr, ptr %4, align 8, !tbaa !42
  %33 = load ptr, ptr %8, align 8, !tbaa !10
  %34 = call noundef i64 @_ZNK2cv9SparseMat4hashEPKi(ptr noundef nonnull align 8 dereferenceable(16) %32, ptr noundef %33)
  %35 = call noundef ptr @_ZN2cv9SparseMat7newNodeEPKim(ptr noundef nonnull align 8 dereferenceable(16) %30, ptr noundef %31, i64 noundef %34)
  store ptr %35, ptr %9, align 8, !tbaa !61
  %36 = load ptr, ptr %6, align 8, !tbaa !152
  %37 = getelementptr inbounds nuw %struct.CvSparseMat, ptr %10, i32 0, i32 7
  %38 = load i32, ptr %37, align 4, !tbaa !155
  %39 = sext i32 %38 to i64
  %40 = getelementptr inbounds i8, ptr %36, i64 %39
  %41 = load ptr, ptr %9, align 8, !tbaa !61
  %42 = load i64, ptr %7, align 8, !tbaa !35
  call void @_ZN2cvL8copyElemEPKhPhm(ptr noundef %40, ptr noundef %41, i64 noundef %42)
  call void @llvm.lifetime.end.p0(i64 8, ptr %9) #18
  call void @llvm.lifetime.end.p0(i64 8, ptr %8) #18
  br label %43

43:                                               ; preds = %24
  %44 = call noundef ptr @_ZL19cvGetNextSparseNodeP19CvSparseMatIterator(ptr noundef %5)
  store ptr %44, ptr %6, align 8, !tbaa !152
  br label %21, !llvm.loop !156

45:                                               ; preds = %21
  call void @llvm.lifetime.end.p0(i64 8, ptr %7) #18
  call void @llvm.lifetime.end.p0(i64 8, ptr %6) #18
  call void @llvm.lifetime.end.p0(i64 24, ptr %5) #18
  ret void
}