; Function Attrs: mustprogress uwtable
define void @_ZNK11CvSparseMat15copyToSparseMatERN2cv9SparseMatE(ptr noundef nonnull align 8 dereferenceable(184) %0, ptr noundef nonnull align 8 captures(none) dereferenceable(16) %1) local_unnamed_addr #0 align 2 {
  %3 = alloca %struct.CvSparseMatIterator, align 8
  %4 = getelementptr inbounds nuw i8, ptr %0, i64 4
  %5 = load i32, ptr %4, align 4, !tbaa !111
  %6 = getelementptr inbounds nuw i8, ptr %0, i64 52
  %7 = load i32, ptr %0, align 8, !tbaa !115
  tail call void @_ZN2cv9SparseMat6createEiPKii(ptr noundef nonnull align 8 dereferenceable(16) %1, i32 noundef %5, ptr noundef nonnull %6, i32 noundef %7)
  call void @llvm.lifetime.start.p0(i64 24, ptr nonnull %3) #26
  %8 = call ptr @cvInitSparseMatIterator(ptr noundef nonnull %0, ptr noundef nonnull %3)
  %9 = load i32, ptr %1, align 8, !tbaa !33
  %10 = lshr i32 %9, 3
  %11 = and i32 %10, 511
  %12 = add nuw nsw i32 %11, 1
  %13 = shl i32 %9, 2
  %14 = and i32 %13, 28
  %15 = lshr i32 675553809, %14
  %16 = and i32 %15, 15
  %17 = mul nuw nsw i32 %16, %12
  %18 = zext nneg i32 %17 to i64
  %.not24 = icmp eq ptr %8, null
  br i1 %.not24, label %._crit_edge, label %.lr.ph

.lr.ph:                                           ; preds = %2
  %19 = getelementptr inbounds nuw i8, ptr %0, i64 48
  %20 = getelementptr inbounds nuw i8, ptr %1, i64 8
  %21 = getelementptr inbounds nuw i8, ptr %0, i64 44
  %.not14.i = icmp samesign ult i32 %17, 4
  %22 = getelementptr inbounds nuw i8, ptr %3, i64 8
  %23 = getelementptr inbounds nuw i8, ptr %3, i64 16
  br label %24

24:                                               ; preds = %_ZL19cvGetNextSparseNodeP19CvSparseMatIterator.exit, %.lr.ph
  %.025 = phi ptr [ %8, %.lr.ph ], [ %.lcssa.sink.i, %_ZL19cvGetNextSparseNodeP19CvSparseMatIterator.exit ]
  %25 = load i32, ptr %19, align 8, !tbaa !116
  %26 = sext i32 %25 to i64
  %27 = getelementptr inbounds i8, ptr %.025, i64 %26
  %28 = load ptr, ptr %20, align 8, !tbaa !36
  %.not.i = icmp eq ptr %28, null
  br i1 %.not.i, label %_ZNK2cv9SparseMat4hashEPKi.exit, label %29

29:                                               ; preds = %24
  %30 = load i32, ptr %27, align 4, !tbaa !23
  %31 = zext i32 %30 to i64
  %32 = getelementptr inbounds nuw i8, ptr %28, i64 4
  %33 = load i32, ptr %32, align 4, !tbaa !20
  %34 = icmp sgt i32 %33, 1
  br i1 %34, label %.lr.ph.preheader.i, label %_ZNK2cv9SparseMat4hashEPKi.exit

.lr.ph.preheader.i:                               ; preds = %29
  %wide.trip.count.i = zext nneg i32 %33 to i64
  br label %.lr.ph.i

.lr.ph.i:                                         ; preds = %.lr.ph.i, %.lr.ph.preheader.i
  %indvars.iv.i = phi i64 [ 1, %.lr.ph.preheader.i ], [ %indvars.iv.next.i, %.lr.ph.i ]
  %.01012.i = phi i64 [ %31, %.lr.ph.preheader.i ], [ %39, %.lr.ph.i ]
  %35 = mul i64 %.01012.i, 1540483477
  %36 = getelementptr inbounds nuw i32, ptr %27, i64 %indvars.iv.i
  %37 = load i32, ptr %36, align 4, !tbaa !23
  %38 = zext i32 %37 to i64
  %39 = add i64 %35, %38
  %indvars.iv.next.i = add nuw nsw i64 %indvars.iv.i, 1
  %exitcond.not.i = icmp eq i64 %indvars.iv.next.i, %wide.trip.count.i
  br i1 %exitcond.not.i, label %_ZNK2cv9SparseMat4hashEPKi.exit, label %.lr.ph.i, !llvm.loop !53

_ZNK2cv9SparseMat4hashEPKi.exit:                  ; preds = %.lr.ph.i, %24, %29
  %.09.i = phi i64 [ 0, %24 ], [ %31, %29 ], [ %39, %.lr.ph.i ]
  %40 = call noundef ptr @_ZN2cv9SparseMat7newNodeEPKim(ptr noundef nonnull align 8 dereferenceable(16) %1, ptr noundef nonnull %27, i64 noundef %.09.i)
  %41 = load i32, ptr %21, align 4, !tbaa !117
  %42 = sext i32 %41 to i64
  %43 = getelementptr inbounds i8, ptr %.025, i64 %42
  br i1 %.not14.i, label %.preheader.i, label %.lr.ph.i11

.preheader.i:                                     ; preds = %.lr.ph.i11, %_ZNK2cv9SparseMat4hashEPKi.exit
  %.0.lcssa.i = phi i64 [ 0, %_ZNK2cv9SparseMat4hashEPKi.exit ], [ %45, %.lr.ph.i11 ]
  %44 = icmp samesign ult i64 %.0.lcssa.i, %18
  br i1 %44, label %.lr.ph17.i, label %_ZN2cvL8copyElemEPKhPhm.exit

.lr.ph.i11:                                       ; preds = %_ZNK2cv9SparseMat4hashEPKi.exit, %.lr.ph.i11
  %45 = phi i64 [ %49, %.lr.ph.i11 ], [ 4, %_ZNK2cv9SparseMat4hashEPKi.exit ]
  %.015.i = phi i64 [ %45, %.lr.ph.i11 ], [ 0, %_ZNK2cv9SparseMat4hashEPKi.exit ]
  %46 = getelementptr inbounds nuw i8, ptr %43, i64 %.015.i
  %47 = load i32, ptr %46, align 4, !tbaa !23
  %48 = getelementptr inbounds nuw i8, ptr %40, i64 %.015.i
  store i32 %47, ptr %48, align 4, !tbaa !23
  %49 = add nuw nsw i64 %45, 4
  %.not.i12 = icmp samesign ugt i64 %49, %18
  br i1 %.not.i12, label %.preheader.i, label %.lr.ph.i11, !llvm.loop !69

.lr.ph17.i:                                       ; preds = %.preheader.i, %.lr.ph17.i
  %.116.i = phi i64 [ %53, %.lr.ph17.i ], [ %.0.lcssa.i, %.preheader.i ]
  %50 = getelementptr inbounds nuw i8, ptr %43, i64 %.116.i
  %51 = load i8, ptr %50, align 1, !tbaa !32
  %52 = getelementptr inbounds nuw i8, ptr %40, i64 %.116.i
  store i8 %51, ptr %52, align 1, !tbaa !32
  %53 = add nuw i64 %.116.i, 1
  %exitcond.not.i13 = icmp eq i64 %53, %18
  br i1 %exitcond.not.i13, label %_ZN2cvL8copyElemEPKhPhm.exit, label %.lr.ph17.i, !llvm.loop !70

_ZN2cvL8copyElemEPKhPhm.exit:                     ; preds = %.lr.ph17.i, %.preheader.i
  %54 = load ptr, ptr %22, align 8, !tbaa !118
  %55 = getelementptr inbounds nuw i8, ptr %54, i64 8
  %56 = load ptr, ptr %55, align 8, !tbaa !122
  %.not.i14 = icmp eq ptr %56, null
  br i1 %.not.i14, label %57, label %_ZL19cvGetNextSparseNodeP19CvSparseMatIterator.exit

57:                                               ; preds = %_ZN2cvL8copyElemEPKhPhm.exit
  %58 = load i32, ptr %23, align 8, !tbaa !124
  %59 = add nsw i32 %58, 1
  %60 = load ptr, ptr %3, align 8, !tbaa !125
  %61 = getelementptr inbounds nuw i8, ptr %60, i64 40
  %62 = load i32, ptr %61, align 8, !tbaa !126
  %63 = icmp slt i32 %59, %62
  br i1 %63, label %.lr.ph.i16, label %._crit_edge

.lr.ph.i16:                                       ; preds = %57
  %64 = getelementptr inbounds nuw i8, ptr %60, i64 32
  %65 = load ptr, ptr %64, align 8, !tbaa !127
  %66 = sext i32 %58 to i64
  %67 = add nsw i64 %66, 1
  br label %68

68:                                               ; preds = %73, %.lr.ph.i16
  %indvars.iv.i17 = phi i64 [ %67, %.lr.ph.i16 ], [ %indvars.iv.next.i18, %73 ]
  %69 = getelementptr inbounds ptr, ptr %65, i64 %indvars.iv.i17
  %70 = load ptr, ptr %69, align 8, !tbaa !44
  %.not19.i = icmp eq ptr %70, null
  br i1 %.not19.i, label %73, label %71

71:                                               ; preds = %68
  %72 = trunc nsw i64 %indvars.iv.i17 to i32
  store i32 %72, ptr %23, align 8, !tbaa !124
  br label %_ZL19cvGetNextSparseNodeP19CvSparseMatIterator.exit

73:                                               ; preds = %68
  %indvars.iv.next.i18 = add nsw i64 %indvars.iv.i17, 1
  %lftr.wideiv.i = trunc i64 %indvars.iv.next.i18 to i32
  %exitcond.not.i19 = icmp eq i32 %62, %lftr.wideiv.i
  br i1 %exitcond.not.i19, label %._crit_edge, label %68, !llvm.loop !128

_ZL19cvGetNextSparseNodeP19CvSparseMatIterator.exit: ; preds = %_ZN2cvL8copyElemEPKhPhm.exit, %71
  %.lcssa.sink.i = phi ptr [ %70, %71 ], [ %56, %_ZN2cvL8copyElemEPKhPhm.exit ]
  store ptr %.lcssa.sink.i, ptr %22, align 8, !tbaa !118
  br label %24, !llvm.loop !129

._crit_edge:                                      ; preds = %57, %73, %2
  call void @llvm.lifetime.end.p0(i64 24, ptr nonnull %3) #26
  ret void
}